; ModuleID = '49/1393.c'
source_filename = "49/1393.c"
target datalayout = "e-m:e-p270:32:32-p271:32:32-p272:64:64-i64:64-f80:128-n8:16:32:64-S128"
target triple = "x86_64-pc-linux-gnu"

@.str = private unnamed_addr constant [3 x i8] c"%c\00", align 1
@.str.1 = private unnamed_addr constant [2 x i8] c"\0A\00", align 1

; Function Attrs: noinline nounwind uwtable
define dso_local i32 @main() #0 {
  %1 = alloca i32, align 4
  %2 = alloca [501 x i8], align 16
  %3 = alloca i32, align 4
  %4 = alloca i32, align 4
  %5 = alloca i32, align 4
  %6 = alloca i32, align 4
  %7 = alloca i32, align 4
  %8 = alloca i32, align 4
  store i32 0, i32* %1, align 4
  %9 = getelementptr inbounds [501 x i8], [501 x i8]* %2, i64 0, i64 0
  %10 = call i32 (i8*, ...) bitcast (i32 (...)* @gets to i32 (i8*, ...)*)(i8* %9)
  %11 = getelementptr inbounds [501 x i8], [501 x i8]* %2, i64 0, i64 0
  %12 = call i64 @strlen(i8* %11) #3
  %13 = trunc i64 %12 to i32
  store i32 %13, i32* %7, align 4
  store i32 1, i32* %6, align 4
  br label %14

14:                                               ; preds = %82, %0
  %15 = load i32, i32* %6, align 4
  %16 = load i32, i32* %7, align 4
  %17 = icmp slt i32 %15, %16
  br i1 %17, label %18, label %85

18:                                               ; preds = %14
  store i32 0, i32* %3, align 4
  br label %19

19:                                               ; preds = %78, %18
  %20 = load i32, i32* %3, align 4
  %21 = load i32, i32* %7, align 4
  %22 = load i32, i32* %6, align 4
  %23 = sub nsw i32 %21, %22
  %24 = icmp slt i32 %20, %23
  br i1 %24, label %25, label %81

25:                                               ; preds = %19
  %26 = load i32, i32* %3, align 4
  store i32 %26, i32* %4, align 4
  %27 = load i32, i32* %3, align 4
  %28 = load i32, i32* %6, align 4
  %29 = add nsw i32 %27, %28
  store i32 %29, i32* %5, align 4
  br label %30

30:                                               ; preds = %48, %25
  %31 = load i32, i32* %4, align 4
  %32 = sext i32 %31 to i64
  %33 = getelementptr inbounds [501 x i8], [501 x i8]* %2, i64 0, i64 %32
  %34 = load i8, i8* %33, align 1
  %35 = sext i8 %34 to i32
  %36 = load i32, i32* %5, align 4
  %37 = sext i32 %36 to i64
  %38 = getelementptr inbounds [501 x i8], [501 x i8]* %2, i64 0, i64 %37
  %39 = load i8, i8* %38, align 1
  %40 = sext i8 %39 to i32
  %41 = icmp eq i32 %35, %40
  br i1 %41, label %42, label %46

42:                                               ; preds = %30
  %43 = load i32, i32* %4, align 4
  %44 = load i32, i32* %5, align 4
  %45 = icmp slt i32 %43, %44
  br label %46

46:                                               ; preds = %42, %30
  %47 = phi i1 [ false, %30 ], [ %45, %42 ]
  br i1 %47, label %48, label %53

48:                                               ; preds = %46
  %49 = load i32, i32* %4, align 4
  %50 = add nsw i32 %49, 1
  store i32 %50, i32* %4, align 4
  %51 = load i32, i32* %5, align 4
  %52 = add nsw i32 %51, -1
  store i32 %52, i32* %5, align 4
  br label %30

53:                                               ; preds = %46
  %54 = load i32, i32* %5, align 4
  %55 = load i32, i32* %4, align 4
  %56 = icmp sle i32 %54, %55
  br i1 %56, label %57, label %77

57:                                               ; preds = %53
  %58 = load i32, i32* %3, align 4
  store i32 %58, i32* %8, align 4
  br label %59

59:                                               ; preds = %72, %57
  %60 = load i32, i32* %8, align 4
  %61 = load i32, i32* %3, align 4
  %62 = load i32, i32* %6, align 4
  %63 = add nsw i32 %61, %62
  %64 = icmp sle i32 %60, %63
  br i1 %64, label %65, label %75

65:                                               ; preds = %59
  %66 = load i32, i32* %8, align 4
  %67 = sext i32 %66 to i64
  %68 = getelementptr inbounds [501 x i8], [501 x i8]* %2, i64 0, i64 %67
  %69 = load i8, i8* %68, align 1
  %70 = sext i8 %69 to i32
  %71 = call i32 (i8*, ...) @printf(i8* getelementptr inbounds ([3 x i8], [3 x i8]* @.str, i64 0, i64 0), i32 %70)
  br label %72

72:                                               ; preds = %65
  %73 = load i32, i32* %8, align 4
  %74 = add nsw i32 %73, 1
  store i32 %74, i32* %8, align 4
  br label %59

75:                                               ; preds = %59
  %76 = call i32 (i8*, ...) @printf(i8* getelementptr inbounds ([2 x i8], [2 x i8]* @.str.1, i64 0, i64 0))
  br label %77

77:                                               ; preds = %75, %53
  br label %78

78:                                               ; preds = %77
  %79 = load i32, i32* %3, align 4
  %80 = add nsw i32 %79, 1
  store i32 %80, i32* %3, align 4
  br label %19

81:                                               ; preds = %19
  br label %82

82:                                               ; preds = %81
  %83 = load i32, i32* %6, align 4
  %84 = add nsw i32 %83, 1
  store i32 %84, i32* %6, align 4
  br label %14

85:                                               ; preds = %14
  ret i32 0
}

declare dso_local i32 @gets(...) #1

; Function Attrs: nounwind readonly
declare dso_local i64 @strlen(i8*) #2

declare dso_local i32 @printf(i8*, ...) #1


!llvm.module.flags = !{!0}
!llvm.ident = !{!1}

!0 = !{i32 1, !"wchar_size", i32 4}
!1 = !{!"clang version 10.0.0-4ubuntu1 "}
